(lp0
(S'cppflags'
p1
ccopy_reg
_reconstructor
p2
(cino.utils
SpaceList
p3
c__builtin__
list
p4
(lp5
S'-mmcu=atmega328p'
p6
aS'-DF_CPU=16000000L'
p7
aS'-DARDUINO=105'
p8
aS'-I/Applications/Arduino.app/Contents/Resources/Java/hardware/arduino/cores/arduino'
p9
aS'-ffunction-sections'
p10
aS'-fdata-sections'
p11
aS'-g'
p12
aS'-Os'
p13
aS'-w'
p14
aS'-I/Applications/Arduino.app/Contents/Resources/Java/hardware/arduino/variants/standard'
p15
atp16
Rp17
tp18
a(S'cxx'
p19
S'/Applications/Arduino.app/Contents/Resources/Java/hardware/tools/avr/bin/avr-g++'
p20
tp21
a(S'build_dir'
p22
S'.build/uno'
p23
tp24
a(S'avrdude'
p25
S'/Applications/Arduino.app/Contents/Resources/Java/hardware/tools/avr/bin/avrdude'
p26
tp27
a(S'ar'
p28
S'/Applications/Arduino.app/Contents/Resources/Java/hardware/tools/avr/bin/avr-ar'
p29
tp30
a(S'names'
p31
(dp32
S'cpp'
p33
S'%s.cpp'
p34
sS'obj'
p35
S'%s.o'
p36
sS'deps'
p37
S'%s.d'
p38
sS'lib'
p39
S'lib%s.a'
p40
stp41
a(S'ldflags'
p42
g2
(g3
g4
(lp43
g6
aS'-Wl,-Os'
p44
aS'-Wl,--gc-sections'
p45
atp46
Rp47
tp48
a(S'arduino_lib_version'
p49
g2
(cino.environment
Version
p50
c__builtin__
tuple
p51
(I1
I0
I5
tp52
tp53
Rp54
tp55
a(S'objcopy'
p56
S'/Applications/Arduino.app/Contents/Resources/Java/hardware/tools/avr/bin/avr-objcopy'
p57
tp58
a(S'board_models'
p59
cino.environment
BoardModels
p60
((lp61
(lp62
S'uno'
p63
a(dp64
S'bootloader'
p65
(dp66
S'extended_fuses'
p67
S'0x05'
p68
sS'high_fuses'
p69
S'0xde'
p70
sS'low_fuses'
p71
S'0xff'
p72
sS'lock_bits'
p73
S'0x0F'
p74
sS'file'
p75
S'optiboot_atmega328.hex'
p76
sS'path'
p77
S'optiboot'
p78
sS'unlock_bits'
p79
S'0x3F'
p80
ssS'build'
p81
(dp82
S'core'
p83
S'arduino'
p84
sS'mcu'
p85
S'atmega328p'
p86
sS'f_cpu'
p87
S'16000000L'
p88
sS'variant'
p89
S'standard'
p90
ssS'name'
p91
S'Arduino Uno'
p92
sS'upload'
p93
(dp94
S'speed'
p95
S'115200'
p96
sS'maximum_size'
p97
S'32256'
p98
sS'protocol'
p99
S'arduino'
p100
ssaa(lp101
S'atmega328'
p102
a(dp103
S'bootloader'
p104
(dp105
S'extended_fuses'
p106
S'0x05'
p107
sS'high_fuses'
p108
S'0xDA'
p109
sS'low_fuses'
p110
S'0xFF'
p111
sS'lock_bits'
p112
S'0x0F'
p113
sS'file'
p114
S'ATmegaBOOT_168_atmega328.hex'
p115
sS'path'
p116
S'atmega'
p117
sS'unlock_bits'
p118
S'0x3F'
p119
ssS'build'
p120
(dp121
S'core'
p122
S'arduino'
p123
sS'mcu'
p124
S'atmega328p'
p125
sS'f_cpu'
p126
S'16000000L'
p127
sS'variant'
p128
S'standard'
p129
ssS'name'
p130
S'Arduino Duemilanove w/ ATmega328'
p131
sS'upload'
p132
(dp133
S'speed'
p134
S'57600'
p135
sS'maximum_size'
p136
S'30720'
p137
sS'protocol'
p138
S'arduino'
p139
ssaa(lp140
S'diecimila'
p141
a(dp142
S'bootloader'
p143
(dp144
S'extended_fuses'
p145
S'0x00'
p146
sS'high_fuses'
p147
S'0xdd'
p148
sS'low_fuses'
p149
S'0xff'
p150
sS'lock_bits'
p151
S'0x0F'
p152
sS'file'
p153
S'ATmegaBOOT_168_diecimila.hex'
p154
sS'path'
p155
S'atmega'
p156
sS'unlock_bits'
p157
S'0x3F'
p158
ssS'build'
p159
(dp160
S'core'
p161
S'arduino'
p162
sS'mcu'
p163
S'atmega168'
p164
sS'f_cpu'
p165
S'16000000L'
p166
sS'variant'
p167
S'standard'
p168
ssS'name'
p169
S'Arduino Diecimila or Duemilanove w/ ATmega168'
p170
sS'upload'
p171
(dp172
S'speed'
p173
S'19200'
p174
sS'maximum_size'
p175
S'14336'
p176
sS'protocol'
p177
S'arduino'
p178
ssaa(lp179
S'nano328'
p180
a(dp181
S'bootloader'
p182
(dp183
S'extended_fuses'
p184
S'0x05'
p185
sS'high_fuses'
p186
S'0xDA'
p187
sS'low_fuses'
p188
S'0xFF'
p189
sS'lock_bits'
p190
S'0x0F'
p191
sS'file'
p192
S'ATmegaBOOT_168_atmega328.hex'
p193
sS'path'
p194
S'atmega'
p195
sS'unlock_bits'
p196
S'0x3F'
p197
ssS'build'
p198
(dp199
S'core'
p200
S'arduino'
p201
sS'mcu'
p202
S'atmega328p'
p203
sS'f_cpu'
p204
S'16000000L'
p205
sS'variant'
p206
S'eightanaloginputs'
p207
ssS'name'
p208
S'Arduino Nano w/ ATmega328'
p209
sS'upload'
p210
(dp211
S'speed'
p212
S'57600'
p213
sS'maximum_size'
p214
S'30720'
p215
sS'protocol'
p216
S'arduino'
p217
ssaa(lp218
S'nano'
p219
a(dp220
S'bootloader'
p221
(dp222
S'extended_fuses'
p223
S'0x00'
p224
sS'high_fuses'
p225
S'0xdd'
p226
sS'low_fuses'
p227
S'0xff'
p228
sS'lock_bits'
p229
S'0x0F'
p230
sS'file'
p231
S'ATmegaBOOT_168_diecimila.hex'
p232
sS'path'
p233
S'atmega'
p234
sS'unlock_bits'
p235
S'0x3F'
p236
ssS'build'
p237
(dp238
S'core'
p239
S'arduino'
p240
sS'mcu'
p241
S'atmega168'
p242
sS'f_cpu'
p243
S'16000000L'
p244
sS'variant'
p245
S'eightanaloginputs'
p246
ssS'name'
p247
S'Arduino Nano w/ ATmega168'
p248
sS'upload'
p249
(dp250
S'speed'
p251
S'19200'
p252
sS'maximum_size'
p253
S'14336'
p254
sS'protocol'
p255
S'arduino'
p256
ssaa(lp257
S'mega2560'
p258
a(dp259
S'bootloader'
p260
(dp261
S'extended_fuses'
p262
S'0xFD'
p263
sS'high_fuses'
p264
S'0xD8'
p265
sS'low_fuses'
p266
S'0xFF'
p267
sS'lock_bits'
p268
S'0x0F'
p269
sS'file'
p270
S'stk500boot_v2_mega2560.hex'
p271
sS'path'
p272
S'stk500v2'
p273
sS'unlock_bits'
p274
S'0x3F'
p275
ssS'build'
p276
(dp277
S'core'
p278
S'arduino'
p279
sS'mcu'
p280
S'atmega2560'
p281
sS'f_cpu'
p282
S'16000000L'
p283
sS'variant'
p284
S'mega'
p285
ssS'name'
p286
S'Arduino Mega 2560 or Mega ADK'
p287
sS'upload'
p288
(dp289
S'speed'
p290
S'115200'
p291
sS'maximum_size'
p292
S'258048'
p293
sS'protocol'
p294
S'wiring'
p295
ssaa(lp296
S'mega'
p297
a(dp298
S'bootloader'
p299
(dp300
S'extended_fuses'
p301
S'0xF5'
p302
sS'high_fuses'
p303
S'0xDA'
p304
sS'low_fuses'
p305
S'0xFF'
p306
sS'lock_bits'
p307
S'0x0F'
p308
sS'file'
p309
S'ATmegaBOOT_168_atmega1280.hex'
p310
sS'path'
p311
S'atmega'
p312
sS'unlock_bits'
p313
S'0x3F'
p314
ssS'build'
p315
(dp316
S'core'
p317
S'arduino'
p318
sS'mcu'
p319
S'atmega1280'
p320
sS'f_cpu'
p321
S'16000000L'
p322
sS'variant'
p323
S'mega'
p324
ssS'name'
p325
S'Arduino Mega (ATmega1280)'
p326
sS'upload'
p327
(dp328
S'speed'
p329
S'57600'
p330
sS'maximum_size'
p331
S'126976'
p332
sS'protocol'
p333
S'arduino'
p334
ssaa(lp335
S'leonardo'
p336
a(dp337
S'bootloader'
p338
(dp339
S'extended_fuses'
p340
S'0xcb'
p341
sS'high_fuses'
p342
S'0xd8'
p343
sS'low_fuses'
p344
S'0xff'
p345
sS'lock_bits'
p346
S'0x2F'
p347
sS'file'
p348
S'Caterina-Leonardo.hex'
p349
sS'path'
p350
S'caterina'
p351
sS'unlock_bits'
p352
S'0x3F'
p353
ssS'build'
p354
(dp355
S'core'
p356
S'arduino'
p357
sS'f_cpu'
p358
S'16000000L'
p359
sS'vid'
p360
S'0x2341'
p361
sS'pid'
p362
S'0x8036'
p363
sS'variant'
p364
S'leonardo'
p365
sS'mcu'
p366
S'atmega32u4'
p367
ssS'name'
p368
S'Arduino Leonardo'
p369
sS'upload'
p370
(dp371
S'speed'
p372
S'57600'
p373
sS'maximum_size'
p374
S'28672'
p375
sS'protocol'
p376
S'avr109'
p377
sS'disable_flushing'
p378
S'true'
p379
ssaa(lp380
S'esplora'
p381
a(dp382
S'bootloader'
p383
(dp384
S'extended_fuses'
p385
S'0xcb'
p386
sS'high_fuses'
p387
S'0xd8'
p388
sS'low_fuses'
p389
S'0xff'
p390
sS'lock_bits'
p391
S'0x2F'
p392
sS'file'
p393
S'Caterina-Esplora.hex'
p394
sS'path'
p395
S'caterina'
p396
sS'unlock_bits'
p397
S'0x3F'
p398
ssS'build'
p399
(dp400
S'core'
p401
S'arduino'
p402
sS'f_cpu'
p403
S'16000000L'
p404
sS'vid'
p405
S'0x2341'
p406
sS'pid'
p407
S'0x803C'
p408
sS'variant'
p409
S'leonardo'
p410
sS'mcu'
p411
S'atmega32u4'
p412
ssS'name'
p413
S'Arduino Esplora'
p414
sS'upload'
p415
(dp416
S'speed'
p417
S'57600'
p418
sS'maximum_size'
p419
S'28672'
p420
sS'protocol'
p421
S'avr109'
p422
sS'disable_flushing'
p423
S'true'
p424
ssaa(lp425
S'micro'
p426
a(dp427
S'bootloader'
p428
(dp429
S'extended_fuses'
p430
S'0xcb'
p431
sS'high_fuses'
p432
S'0xd8'
p433
sS'low_fuses'
p434
S'0xff'
p435
sS'lock_bits'
p436
S'0x2F'
p437
sS'file'
p438
S'Caterina-Micro.hex'
p439
sS'path'
p440
S'caterina'
p441
sS'unlock_bits'
p442
S'0x3F'
p443
ssS'build'
p444
(dp445
S'core'
p446
S'arduino'
p447
sS'f_cpu'
p448
S'16000000L'
p449
sS'vid'
p450
S'0x2341'
p451
sS'pid'
p452
S'0x8037'
p453
sS'variant'
p454
S'micro'
p455
sS'mcu'
p456
S'atmega32u4'
p457
ssS'name'
p458
S'Arduino Micro'
p459
sS'upload'
p460
(dp461
S'speed'
p462
S'57600'
p463
sS'maximum_size'
p464
S'28672'
p465
sS'protocol'
p466
S'avr109'
p467
sS'disable_flushing'
p468
S'true'
p469
ssaa(lp470
S'mini328'
p471
a(dp472
S'bootloader'
p473
(dp474
S'extended_fuses'
p475
S'0x05'
p476
sS'high_fuses'
p477
S'0xd8'
p478
sS'low_fuses'
p479
S'0xff'
p480
sS'lock_bits'
p481
S'0x0F'
p482
sS'file'
p483
S'optiboot_atmega328-Mini.hex'
p484
sS'path'
p485
S'optiboot'
p486
sS'unlock_bits'
p487
S'0x3F'
p488
ssS'build'
p489
(dp490
S'core'
p491
S'arduino'
p492
sS'mcu'
p493
S'atmega328p'
p494
sS'f_cpu'
p495
S'16000000L'
p496
sS'variant'
p497
S'eightanaloginputs'
p498
ssS'name'
p499
S'Arduino Mini w/ ATmega328'
p500
sS'upload'
p501
(dp502
S'speed'
p503
S'115200'
p504
sS'maximum_size'
p505
S'28672'
p506
sS'protocol'
p507
S'arduino'
p508
ssaa(lp509
S'mini'
p510
a(dp511
S'bootloader'
p512
(dp513
S'extended_fuses'
p514
S'0x00'
p515
sS'high_fuses'
p516
S'0xdd'
p517
sS'low_fuses'
p518
S'0xff'
p519
sS'lock_bits'
p520
S'0x0F'
p521
sS'file'
p522
S'ATmegaBOOT_168_ng.hex'
p523
sS'path'
p524
S'atmega'
p525
sS'unlock_bits'
p526
S'0x3F'
p527
ssS'build'
p528
(dp529
S'core'
p530
S'arduino'
p531
sS'mcu'
p532
S'atmega168'
p533
sS'f_cpu'
p534
S'16000000L'
p535
sS'variant'
p536
S'eightanaloginputs'
p537
ssS'name'
p538
S'Arduino Mini w/ ATmega168'
p539
sS'upload'
p540
(dp541
S'speed'
p542
S'19200'
p543
sS'maximum_size'
p544
S'14336'
p545
sS'protocol'
p546
S'arduino'
p547
ssaa(lp548
S'ethernet'
p549
a(dp550
S'bootloader'
p551
(dp552
S'extended_fuses'
p553
S'0x05'
p554
sS'high_fuses'
p555
S'0xde'
p556
sS'low_fuses'
p557
S'0xff'
p558
sS'lock_bits'
p559
S'0x0F'
p560
sS'file'
p561
S'optiboot_atmega328.hex'
p562
sS'path'
p563
S'optiboot'
p564
sS'unlock_bits'
p565
S'0x3F'
p566
ssS'build'
p567
(dp568
S'f_cpu'
p569
S'16000000L'
p570
sS'mcu'
p571
S'atmega328p'
p572
sS'variant'
p573
S'standard'
p574
sS'core'
p575
S'arduino'
p576
ssS'name'
p577
S'Arduino Ethernet'
p578
sS'upload'
p579
(dp580
S'speed'
p581
S'115200'
p582
sS'maximum_size'
p583
S'32256'
p584
sS'protocol'
p585
S'arduino'
p586
ssaa(lp587
S'fio'
p588
a(dp589
S'bootloader'
p590
(dp591
S'extended_fuses'
p592
S'0x05'
p593
sS'high_fuses'
p594
S'0xDA'
p595
sS'low_fuses'
p596
S'0xFF'
p597
sS'lock_bits'
p598
S'0x0F'
p599
sS'file'
p600
S'ATmegaBOOT_168_atmega328_pro_8MHz.hex'
p601
sS'path'
p602
S'arduino:atmega'
p603
sS'unlock_bits'
p604
S'0x3F'
p605
ssS'build'
p606
(dp607
S'core'
p608
S'arduino'
p609
sS'mcu'
p610
S'atmega328p'
p611
sS'f_cpu'
p612
S'8000000L'
p613
sS'variant'
p614
S'eightanaloginputs'
p615
ssS'name'
p616
S'Arduino Fio'
p617
sS'upload'
p618
(dp619
S'speed'
p620
S'57600'
p621
sS'maximum_size'
p622
S'30720'
p623
sS'protocol'
p624
S'arduino'
p625
ssaa(lp626
S'bt328'
p627
a(dp628
S'bootloader'
p629
(dp630
S'extended_fuses'
p631
S'0x05'
p632
sS'high_fuses'
p633
S'0xd8'
p634
sS'low_fuses'
p635
S'0xff'
p636
sS'lock_bits'
p637
S'0x0F'
p638
sS'file'
p639
S'ATmegaBOOT_168_atmega328_bt.hex'
p640
sS'path'
p641
S'bt'
p642
sS'unlock_bits'
p643
S'0x3F'
p644
ssS'build'
p645
(dp646
S'core'
p647
S'arduino'
p648
sS'mcu'
p649
S'atmega328p'
p650
sS'f_cpu'
p651
S'16000000L'
p652
sS'variant'
p653
S'eightanaloginputs'
p654
ssS'name'
p655
S'Arduino BT w/ ATmega328'
p656
sS'upload'
p657
(dp658
S'speed'
p659
S'19200'
p660
sS'maximum_size'
p661
S'28672'
p662
sS'protocol'
p663
S'arduino'
p664
sS'disable_flushing'
p665
S'true'
p666
ssaa(lp667
S'bt'
p668
a(dp669
S'bootloader'
p670
(dp671
S'extended_fuses'
p672
S'0x00'
p673
sS'high_fuses'
p674
S'0xdd'
p675
sS'low_fuses'
p676
S'0xff'
p677
sS'lock_bits'
p678
S'0x0F'
p679
sS'file'
p680
S'ATmegaBOOT_168.hex'
p681
sS'path'
p682
S'bt'
p683
sS'unlock_bits'
p684
S'0x3F'
p685
ssS'build'
p686
(dp687
S'core'
p688
S'arduino'
p689
sS'mcu'
p690
S'atmega168'
p691
sS'f_cpu'
p692
S'16000000L'
p693
sS'variant'
p694
S'eightanaloginputs'
p695
ssS'name'
p696
S'Arduino BT w/ ATmega168'
p697
sS'upload'
p698
(dp699
S'speed'
p700
S'19200'
p701
sS'maximum_size'
p702
S'14336'
p703
sS'protocol'
p704
S'arduino'
p705
sS'disable_flushing'
p706
S'true'
p707
ssaa(lp708
S'LilyPadUSB'
p709
a(dp710
S'bootloader'
p711
(dp712
S'extended_fuses'
p713
S'0xce'
p714
sS'high_fuses'
p715
S'0xd8'
p716
sS'low_fuses'
p717
S'0xff'
p718
sS'lock_bits'
p719
S'0x2F'
p720
sS'file'
p721
S'Caterina-LilyPadUSB.hex'
p722
sS'path'
p723
S'caterina-LilyPadUSB'
p724
sS'unlock_bits'
p725
S'0x3F'
p726
ssS'build'
p727
(dp728
S'core'
p729
S'arduino'
p730
sS'f_cpu'
p731
S'8000000L'
p732
sS'vid'
p733
S'0x1B4F'
p734
sS'pid'
p735
S'0x9208'
p736
sS'variant'
p737
S'leonardo'
p738
sS'mcu'
p739
S'atmega32u4'
p740
ssS'name'
p741
S'LilyPad Arduino USB'
p742
sS'upload'
p743
(dp744
S'speed'
p745
S'57600'
p746
sS'maximum_size'
p747
S'28672'
p748
sS'protocol'
p749
S'avr109'
p750
sS'disable_flushing'
p751
S'true'
p752
ssaa(lp753
S'lilypad328'
p754
a(dp755
S'bootloader'
p756
(dp757
S'extended_fuses'
p758
S'0x05'
p759
sS'high_fuses'
p760
S'0xDA'
p761
sS'low_fuses'
p762
S'0xFF'
p763
sS'lock_bits'
p764
S'0x0F'
p765
sS'file'
p766
S'ATmegaBOOT_168_atmega328_pro_8MHz.hex'
p767
sS'path'
p768
S'atmega'
p769
sS'unlock_bits'
p770
S'0x3F'
p771
ssS'build'
p772
(dp773
S'core'
p774
S'arduino'
p775
sS'mcu'
p776
S'atmega328p'
p777
sS'f_cpu'
p778
S'8000000L'
p779
sS'variant'
p780
S'standard'
p781
ssS'name'
p782
S'LilyPad Arduino w/ ATmega328'
p783
sS'upload'
p784
(dp785
S'speed'
p786
S'57600'
p787
sS'maximum_size'
p788
S'30720'
p789
sS'protocol'
p790
S'arduino'
p791
ssaa(lp792
S'lilypad'
p793
a(dp794
S'bootloader'
p795
(dp796
S'extended_fuses'
p797
S'0x00'
p798
sS'high_fuses'
p799
S'0xdd'
p800
sS'low_fuses'
p801
S'0xe2'
p802
sS'lock_bits'
p803
S'0x0F'
p804
sS'file'
p805
S'LilyPadBOOT_168.hex'
p806
sS'path'
p807
S'lilypad'
p808
sS'unlock_bits'
p809
S'0x3F'
p810
ssS'build'
p811
(dp812
S'core'
p813
S'arduino'
p814
sS'mcu'
p815
S'atmega168'
p816
sS'f_cpu'
p817
S'8000000L'
p818
sS'variant'
p819
S'standard'
p820
ssS'name'
p821
S'LilyPad Arduino w/ ATmega168'
p822
sS'upload'
p823
(dp824
S'speed'
p825
S'19200'
p826
sS'maximum_size'
p827
S'14336'
p828
sS'protocol'
p829
S'arduino'
p830
ssaa(lp831
S'pro5v328'
p832
a(dp833
S'bootloader'
p834
(dp835
S'extended_fuses'
p836
S'0x05'
p837
sS'high_fuses'
p838
S'0xDA'
p839
sS'low_fuses'
p840
S'0xFF'
p841
sS'lock_bits'
p842
S'0x0F'
p843
sS'file'
p844
S'ATmegaBOOT_168_atmega328.hex'
p845
sS'path'
p846
S'atmega'
p847
sS'unlock_bits'
p848
S'0x3F'
p849
ssS'build'
p850
(dp851
S'core'
p852
S'arduino'
p853
sS'mcu'
p854
S'atmega328p'
p855
sS'f_cpu'
p856
S'16000000L'
p857
sS'variant'
p858
S'standard'
p859
ssS'name'
p860
S'Arduino Pro or Pro Mini (5V, 16 MHz) w/ ATmega328'
p861
sS'upload'
p862
(dp863
S'speed'
p864
S'57600'
p865
sS'maximum_size'
p866
S'30720'
p867
sS'protocol'
p868
S'arduino'
p869
ssaa(lp870
S'pro5v'
p871
a(dp872
S'bootloader'
p873
(dp874
S'extended_fuses'
p875
S'0x00'
p876
sS'high_fuses'
p877
S'0xdd'
p878
sS'low_fuses'
p879
S'0xff'
p880
sS'lock_bits'
p881
S'0x0F'
p882
sS'file'
p883
S'ATmegaBOOT_168_diecimila.hex'
p884
sS'path'
p885
S'atmega'
p886
sS'unlock_bits'
p887
S'0x3F'
p888
ssS'build'
p889
(dp890
S'core'
p891
S'arduino'
p892
sS'mcu'
p893
S'atmega168'
p894
sS'f_cpu'
p895
S'16000000L'
p896
sS'variant'
p897
S'standard'
p898
ssS'name'
p899
S'Arduino Pro or Pro Mini (5V, 16 MHz) w/ ATmega168'
p900
sS'upload'
p901
(dp902
S'speed'
p903
S'19200'
p904
sS'maximum_size'
p905
S'14336'
p906
sS'protocol'
p907
S'arduino'
p908
ssaa(lp909
S'pro328'
p910
a(dp911
S'bootloader'
p912
(dp913
S'extended_fuses'
p914
S'0x05'
p915
sS'high_fuses'
p916
S'0xDA'
p917
sS'low_fuses'
p918
S'0xFF'
p919
sS'lock_bits'
p920
S'0x0F'
p921
sS'file'
p922
S'ATmegaBOOT_168_atmega328_pro_8MHz.hex'
p923
sS'path'
p924
S'atmega'
p925
sS'unlock_bits'
p926
S'0x3F'
p927
ssS'build'
p928
(dp929
S'core'
p930
S'arduino'
p931
sS'mcu'
p932
S'atmega328p'
p933
sS'f_cpu'
p934
S'8000000L'
p935
sS'variant'
p936
S'standard'
p937
ssS'name'
p938
S'Arduino Pro or Pro Mini (3.3V, 8 MHz) w/ ATmega328'
p939
sS'upload'
p940
(dp941
S'speed'
p942
S'57600'
p943
sS'maximum_size'
p944
S'30720'
p945
sS'protocol'
p946
S'arduino'
p947
ssaa(lp948
S'pro'
p949
a(dp950
S'bootloader'
p951
(dp952
S'extended_fuses'
p953
S'0x00'
p954
sS'high_fuses'
p955
S'0xdd'
p956
sS'low_fuses'
p957
S'0xc6'
p958
sS'lock_bits'
p959
S'0x0F'
p960
sS'file'
p961
S'ATmegaBOOT_168_pro_8MHz.hex'
p962
sS'path'
p963
S'atmega'
p964
sS'unlock_bits'
p965
S'0x3F'
p966
ssS'build'
p967
(dp968
S'core'
p969
S'arduino'
p970
sS'mcu'
p971
S'atmega168'
p972
sS'f_cpu'
p973
S'8000000L'
p974
sS'variant'
p975
S'standard'
p976
ssS'name'
p977
S'Arduino Pro or Pro Mini (3.3V, 8 MHz) w/ ATmega168'
p978
sS'upload'
p979
(dp980
S'speed'
p981
S'19200'
p982
sS'maximum_size'
p983
S'14336'
p984
sS'protocol'
p985
S'arduino'
p986
ssaa(lp987
S'atmega168'
p988
a(dp989
S'bootloader'
p990
(dp991
S'extended_fuses'
p992
S'0x00'
p993
sS'high_fuses'
p994
S'0xdd'
p995
sS'low_fuses'
p996
S'0xff'
p997
sS'lock_bits'
p998
S'0x0F'
p999
sS'file'
p1000
S'ATmegaBOOT_168_ng.hex'
p1001
sS'path'
p1002
S'atmega'
p1003
sS'unlock_bits'
p1004
S'0x3F'
p1005
ssS'build'
p1006
(dp1007
S'core'
p1008
S'arduino'
p1009
sS'mcu'
p1010
S'atmega168'
p1011
sS'f_cpu'
p1012
S'16000000L'
p1013
sS'variant'
p1014
S'standard'
p1015
ssS'name'
p1016
S'Arduino NG or older w/ ATmega168'
p1017
sS'upload'
p1018
(dp1019
S'speed'
p1020
S'19200'
p1021
sS'maximum_size'
p1022
S'14336'
p1023
sS'protocol'
p1024
S'arduino'
p1025
ssaa(lp1026
S'atmega8'
p1027
a(dp1028
S'bootloader'
p1029
(dp1030
S'high_fuses'
p1031
S'0xca'
p1032
sS'low_fuses'
p1033
S'0xdf'
p1034
sS'lock_bits'
p1035
S'0x0F'
p1036
sS'file'
p1037
S'ATmegaBOOT-prod-firmware-2009-11-07.hex'
p1038
sS'path'
p1039
S'atmega8'
p1040
sS'unlock_bits'
p1041
S'0x3F'
p1042
ssS'build'
p1043
(dp1044
S'core'
p1045
S'arduino'
p1046
sS'mcu'
p1047
S'atmega8'
p1048
sS'f_cpu'
p1049
S'16000000L'
p1050
sS'variant'
p1051
S'standard'
p1052
ssS'name'
p1053
S'Arduino NG or older w/ ATmega8'
p1054
sS'upload'
p1055
(dp1056
S'speed'
p1057
S'19200'
p1058
sS'maximum_size'
p1059
S'7168'
p1060
sS'protocol'
p1061
S'arduino'
p1062
ssaa(lp1063
S'robotControl'
p1064
a(dp1065
S'bootloader'
p1066
(dp1067
S'extended_fuses'
p1068
S'0xcb'
p1069
sS'high_fuses'
p1070
S'0xd8'
p1071
sS'low_fuses'
p1072
S'0xff'
p1073
sS'lock_bits'
p1074
S'0x2F'
p1075
sS'file'
p1076
S'Caterina-Robot-Control.hex'
p1077
sS'path'
p1078
S'caterina-Arduino_Robot'
p1079
sS'unlock_bits'
p1080
S'0x3F'
p1081
ssS'build'
p1082
(dp1083
S'core'
p1084
S'robot'
p1085
sS'f_cpu'
p1086
S'16000000L'
p1087
sS'vid'
p1088
S'0x2341'
p1089
sS'pid'
p1090
S'0x8038'
p1091
sS'variant'
p1092
S'robot_control'
p1093
sS'mcu'
p1094
S'atmega32u4'
p1095
ssS'name'
p1096
S'Arduino Robot Control'
p1097
sS'upload'
p1098
(dp1099
S'speed'
p1100
S'57600'
p1101
sS'maximum_size'
p1102
S'28672'
p1103
sS'protocol'
p1104
S'avr109'
p1105
sS'disable_flushing'
p1106
S'true'
p1107
ssaa(lp1108
S'robotMotor'
p1109
a(dp1110
S'bootloader'
p1111
(dp1112
S'extended_fuses'
p1113
S'0xcb'
p1114
sS'high_fuses'
p1115
S'0xd8'
p1116
sS'low_fuses'
p1117
S'0xff'
p1118
sS'lock_bits'
p1119
S'0x2F'
p1120
sS'file'
p1121
S'Caterina-Robot-Motor.hex'
p1122
sS'path'
p1123
S'caterina-Arduino_Robot'
p1124
sS'unlock_bits'
p1125
S'0x3F'
p1126
ssS'build'
p1127
(dp1128
S'core'
p1129
S'robot'
p1130
sS'f_cpu'
p1131
S'16000000L'
p1132
sS'vid'
p1133
S'0x2341'
p1134
sS'pid'
p1135
S'0x8039'
p1136
sS'variant'
p1137
S'robot_motor'
p1138
sS'mcu'
p1139
S'atmega32u4'
p1140
ssS'name'
p1141
S'Arduino Robot Motor'
p1142
sS'upload'
p1143
(dp1144
S'speed'
p1145
S'57600'
p1146
sS'maximum_size'
p1147
S'28672'
p1148
sS'protocol'
p1149
S'avr109'
p1150
sS'disable_flushing'
p1151
S'true'
p1152
ssaatp1153
Rp1154
(dp1155
S'default'
p1156
S'uno'
p1157
sbtp1158
a(S'used_libs'
p1159
(lp1160
S'/Applications/Arduino.app/Contents/Resources/Java/hardware/arduino/cores/arduino'
p1161
atp1162
a(S'make'
p1163
S'/Applications/Arduino.app/Contents/Resources/Java/hardware/tools/avr/bin/make'
p1164
tp1165
a(S'arduino_libraries_dir'
p1166
S'/Applications/Arduino.app/Contents/Resources/Java/libraries'
p1167
tp1168
a(S'cc'
p1169
S'/Applications/Arduino.app/Contents/Resources/Java/hardware/tools/avr/bin/avr-gcc'
p1170
tp1171
a(S'cflags'
p1172
g2
(g3
g4
(lp1173
tp1174
Rp1175
tp1176
a(S'cxxflags'
p1177
g2
(g3
g4
(lp1178
S'-fno-exceptions'
p1179
atp1180
Rp1181
tp1182
a(S'arduino_variants_dir'
p1183
S'/Applications/Arduino.app/Contents/Resources/Java/hardware/arduino/variants'
p1184
tp1185
a(S'stty'
p1186
S'/bin/stty'
p1187
tp1188
a(S'version.txt'
p1189
S'/Applications/Arduino.app/Contents/Resources/Java/lib/version.txt'
p1190
tp1191
a(S'arduino_core_dir'
p1192
g1161
tp1193
a(S'boards.txt'
p1194
S'/Applications/Arduino.app/Contents/Resources/Java/hardware/arduino/boards.txt'
p1195
tp1196
a(S'avrdude.conf'
p1197
S'/Applications/Arduino.app/Contents/Resources/Java/hardware/tools/avr/etc/avrdude.conf'
p1198
tp1199
a(S'deps'
p1200
g2
(g3
g4
(lp1201
S'.build/uno/src/dependencies.d'
p1202
aS'.build/uno/arduino/dependencies.d'
p1203
atp1204
Rp1205
tp1206
a.